target datalayout = "e-m:e-p270:32:32-p271:32:32-p272:64:64-i64:64-i128:128-f80:128-n8:16:32:64-S128"
target triple = "x86_64-pc-linux-gnu"

; Function Attrs: nounwind uwtable
define dso_local void @luaL_unref(ptr noundef %0, i32 noundef %1, i32 noundef %2) #0 {
  %4 = alloca ptr, align 8
  %5 = alloca i32, align 4
  %6 = alloca i32, align 4
  store ptr %0, ptr %4, align 8, !tbaa !4
  store i32 %1, ptr %5, align 4, !tbaa !9
  store i32 %2, ptr %6, align 4, !tbaa !9
  %7 = load i32, ptr %6, align 4, !tbaa !9
  %8 = icmp sge i32 %7, 0
  br i1 %8, label %9, label %35

9:                                                ; preds = %3
  %10 = load i32, ptr %5, align 4, !tbaa !9
  %11 = icmp sgt i32 %10, 0
  br i1 %11, label %15, label %12

12:                                               ; preds = %9
  %13 = load i32, ptr %5, align 4, !tbaa !9
  %14 = icmp sle i32 %13, -10000
  br i1 %14, label %15, label %17

15:                                               ; preds = %12, %9
  %16 = load i32, ptr %5, align 4, !tbaa !9
  br label %23

17:                                               ; preds = %12
  %18 = load ptr, ptr %4, align 8, !tbaa !4
  %19 = call i32 @lua_gettop(ptr noundef %18)
  %20 = load i32, ptr %5, align 4, !tbaa !9
  %21 = add nsw i32 %19, %20
  %22 = add nsw i32 %21, 1
  br label %23

23:                                               ; preds = %17, %15
  %24 = phi i32 [ %16, %15 ], [ %22, %17 ]
  store i32 %24, ptr %5, align 4, !tbaa !9
  %25 = load ptr, ptr %4, align 8, !tbaa !4
  %26 = load i32, ptr %5, align 4, !tbaa !9
  call void @lua_rawgeti(ptr noundef %25, i32 noundef %26, i32 noundef 0)
  %27 = load ptr, ptr %4, align 8, !tbaa !4
  %28 = load i32, ptr %5, align 4, !tbaa !9
  %29 = load i32, ptr %6, align 4, !tbaa !9
  call void @lua_rawseti(ptr noundef %27, i32 noundef %28, i32 noundef %29)
  %30 = load ptr, ptr %4, align 8, !tbaa !4
  %31 = load i32, ptr %6, align 4, !tbaa !9
  %32 = sext i32 %31 to i64
  call void @lua_pushinteger(ptr noundef %30, i64 noundef %32)
  %33 = load ptr, ptr %4, align 8, !tbaa !4
  %34 = load i32, ptr %5, align 4, !tbaa !9
  call void @lua_rawseti(ptr noundef %33, i32 noundef %34, i32 noundef 0)
  br label %35

35:                                               ; preds = %23, %3
  ret void
}